; Function Attrs: mustprogress uwtable
define internal noundef zeroext i1 @_ZN2cvL17checkIntegerRangeILi2EEEbNS_3MatERNS_6Point_IiEEii(ptr noundef %0, ptr noundef nonnull writeonly align 4 captures(none) dereferenceable(8) %1, i32 noundef %2, i32 noundef %3) #3 personality ptr @__gxx_personality_v0 {
  %5 = alloca %"class.cv::Mat", align 8
  %6 = icmp slt i32 %2, 0
  %7 = icmp sgt i32 %3, 65535
  %or.cond = and i1 %6, %7
  br i1 %or.cond, label %40, label %8

8:                                                ; preds = %4
  %9 = icmp sgt i32 %2, 65535
  %10 = icmp slt i32 %3, 0
  %or.cond5 = or i1 %9, %10
  %11 = icmp slt i32 %3, %2
  %or.cond38 = or i1 %11, %or.cond5
  br i1 %or.cond38, label %12, label %13

12:                                               ; preds = %8
  store i64 0, ptr %1, align 4
  br label %40

13:                                               ; preds = %8
  call void @llvm.lifetime.start.p0(i64 96, ptr nonnull %5) #27
  call void @_ZNK2cv3Mat7reshapeEii(ptr dead_on_unwind nonnull writable sret(%"class.cv::Mat") align 8 %5, ptr noundef nonnull align 8 dereferenceable(96) %0, i32 noundef 1, i32 noundef 0)
  %14 = getelementptr inbounds nuw i8, ptr %5, i64 8
  %15 = load i32, ptr %14, align 8, !tbaa !140
  %.not3750 = icmp slt i32 %15, 1
  br i1 %.not3750, label %.critedge43, label %.preheader.lr.ph

.preheader.lr.ph:                                 ; preds = %13
  %16 = getelementptr inbounds nuw i8, ptr %5, i64 12
  %17 = load i32, ptr %16, align 4, !tbaa !141
  %.not48 = icmp sgt i32 %17, 0
  %18 = getelementptr inbounds nuw i8, ptr %5, i64 16
  %19 = load ptr, ptr %18, align 8
  br i1 %.not48, label %.preheader.lr.ph.split.us, label %.critedge43

.preheader.lr.ph.split.us:                        ; preds = %.preheader.lr.ph
  %20 = getelementptr inbounds nuw i8, ptr %5, i64 72
  %21 = load ptr, ptr %20, align 8
  %22 = load i64, ptr %21, align 8, !tbaa !142
  %wide.trip.count63 = zext nneg i32 %15 to i64
  %wide.trip.count = zext nneg i32 %17 to i64
  br label %.preheader.us

.preheader.us:                                    ; preds = %..critedge41_crit_edge.us, %.preheader.lr.ph.split.us
  %indvars.iv60 = phi i64 [ %indvars.iv.next61, %..critedge41_crit_edge.us ], [ 0, %.preheader.lr.ph.split.us ]
  %23 = mul i64 %22, %indvars.iv60
  %24 = getelementptr inbounds nuw i8, ptr %19, i64 %23
  br label %25

25:                                               ; preds = %.preheader.us, %31
  %indvars.iv = phi i64 [ 0, %.preheader.us ], [ %indvars.iv.next, %31 ]
  %26 = getelementptr inbounds nuw i16, ptr %24, i64 %indvars.iv
  %27 = load i16, ptr %26, align 2, !tbaa !151
  %28 = zext i16 %27 to i32
  %29 = icmp sgt i32 %2, %28
  %30 = icmp samesign ult i32 %3, %28
  %or.cond39.us = or i1 %29, %30
  br i1 %or.cond39.us, label %.critedge, label %31

31:                                               ; preds = %25
  %indvars.iv.next = add nuw nsw i64 %indvars.iv, 1
  %exitcond.not = icmp eq i64 %indvars.iv.next, %wide.trip.count
  br i1 %exitcond.not, label %..critedge41_crit_edge.us, label %25, !llvm.loop !153

..critedge41_crit_edge.us:                        ; preds = %31
  %indvars.iv.next61 = add nuw nsw i64 %indvars.iv60, 1
  %exitcond64.not = icmp eq i64 %indvars.iv.next61, %wide.trip.count63
  br i1 %exitcond64.not, label %.critedge43, label %.preheader.us, !llvm.loop !154

.critedge:                                        ; preds = %25
  %32 = trunc nuw nsw i64 %indvars.iv60 to i32
  %33 = trunc nuw nsw i64 %indvars.iv to i32
  %34 = getelementptr inbounds nuw i8, ptr %1, i64 4
  store i32 %32, ptr %34, align 4, !tbaa !146
  %35 = load i32, ptr %0, align 8, !tbaa !34
  %36 = lshr i32 %35, 3
  %37 = and i32 %36, 511
  %38 = add nuw nsw i32 %37, 1
  %39 = udiv i32 %33, %38
  store i32 %39, ptr %1, align 4, !tbaa !148
  br label %.critedge43

.critedge43:                                      ; preds = %..critedge41_crit_edge.us, %.preheader.lr.ph, %13, %.critedge
  %.not3746 = phi i1 [ false, %.critedge ], [ true, %13 ], [ true, %.preheader.lr.ph ], [ true, %..critedge41_crit_edge.us ]
  call void @_ZN2cv3MatD1Ev(ptr noundef nonnull align 8 dereferenceable(96) %5) #27
  call void @llvm.lifetime.end.p0(i64 96, ptr nonnull %5) #27
  br label %40

40:                                               ; preds = %4, %.critedge43, %12
  %.0 = phi i1 [ false, %12 ], [ %.not3746, %.critedge43 ], [ true, %4 ]
  ret i1 %.0
}